; Function Attrs: nounwind sspstrong uwtable
define internal noundef i64 @netlink_audit_target_to_host(ptr noundef readonly captures(none) %buf, i64 noundef %len) #0 {
entry:
  %cmp16.i.i = icmp ugt i64 %len, 16
  br i1 %cmp16.i.i, label %while.body.i.i, label %target_to_host_nlmsg_audit.exit

while.body.i.i:                                   ; preds = %entry, %sw.epilog.i.i
  %nlh.addr.018.i.i = phi ptr [ %add.ptr28.i.i, %sw.epilog.i.i ], [ %buf, %entry ]
  %len.addr.017.i.i = phi i64 [ %sub27.i.i, %sw.epilog.i.i ], [ %len, %entry ]
  %0 = load i32, ptr %nlh.addr.018.i.i, align 4
  %cmp1.i.i = icmp ult i32 %0, 16
  %conv5.i.i = zext i32 %0 to i64
  %cmp6.i.i = icmp ult i64 %len.addr.017.i.i, %conv5.i.i
  %or.cond.i.i = or i1 %cmp1.i.i, %cmp6.i.i
  br i1 %or.cond.i.i, label %target_to_host_nlmsg_audit.exit, label %if.end.i.i

if.end.i.i:                                       ; preds = %while.body.i.i
  %nlmsg_type.i.i = getelementptr inbounds nuw i8, ptr %nlh.addr.018.i.i, i64 4
  %1 = load i16, ptr %nlmsg_type.i.i, align 4
  switch i16 %1, label %sw.caserange3.i.i [
    i16 3, label %target_to_host_nlmsg_audit.exit
    i16 1, label %sw.epilog.i.i
    i16 2, label %target_to_host_nlmsg_audit.exit
    i16 1005, label %sw.epilog.i.i
  ]

sw.caserange3.i.i:                                ; preds = %if.end.i.i
  %2 = add i16 %1, -1100
  %inbounds4.i.i = icmp ult i16 %2, 100
  %3 = add i16 %1, -2100
  %inbounds.i.i = icmp ult i16 %3, 900
  %or.cond.i2.i = or i1 %inbounds4.i.i, %inbounds.i.i
  br i1 %or.cond.i2.i, label %sw.epilog.i.i, label %do.body.i.i

do.body.i.i:                                      ; preds = %sw.caserange3.i.i
  %4 = load i32, ptr @qemu_loglevel, align 4
  %and.i.i.i = and i32 %4, 1024
  %cmp.i.not.i.i = icmp eq i32 %and.i.i.i, 0
  br i1 %cmp.i.not.i.i, label %target_to_host_nlmsg_audit.exit, label %if.then.i.i

if.then.i.i:                                      ; preds = %do.body.i.i
  %conv8.i.i = zext i16 %1 to i32
  tail call void (ptr, ...) @qemu_log(ptr noundef nonnull @.str.24, i32 noundef %conv8.i.i) #5
  br label %target_to_host_nlmsg_audit.exit

sw.epilog.i.i:                                    ; preds = %sw.caserange3.i.i, %if.end.i.i, %if.end.i.i
  %sub.i.i = add i32 %0, 3
  %and.i.i = and i32 %sub.i.i, -4
  %conv21.i.i = zext i32 %and.i.i to i64
  %cmp22.not.i.i = icmp ugt i64 %len.addr.017.i.i, %conv21.i.i
  %sub27.i.i = sub nuw i64 %len.addr.017.i.i, %conv21.i.i
  %add.ptr28.i.i = getelementptr i8, ptr %nlh.addr.018.i.i, i64 %conv21.i.i
  %cmp.i.i = icmp ugt i64 %sub27.i.i, 16
  %or.cond20.i.i = select i1 %cmp22.not.i.i, i1 %cmp.i.i, i1 false
  br i1 %or.cond20.i.i, label %while.body.i.i, label %target_to_host_nlmsg_audit.exit, !llvm.loop !11

target_to_host_nlmsg_audit.exit:                  ; preds = %if.end.i.i, %if.end.i.i, %while.body.i.i, %sw.epilog.i.i, %entry, %do.body.i.i, %if.then.i.i
  %5 = phi i64 [ -22, %if.then.i.i ], [ -22, %do.body.i.i ], [ %len, %entry ], [ %len, %sw.epilog.i.i ], [ %len, %while.body.i.i ], [ %len, %if.end.i.i ], [ %len, %if.end.i.i ]
  ret i64 %5
}